; Function Attrs: mustprogress uwtable
define void @_ZN5boost9unit_test9decorator5label5applyERNS0_9test_unitE(ptr nocapture noundef nonnull readonly align 8 dereferenceable(24) %0, ptr noundef nonnull align 8 dereferenceable(280) %1) unnamed_addr #0 align 2 {
  %3 = alloca %"class.boost::unit_test::basic_cstring", align 8
  %4 = getelementptr inbounds nuw i8, ptr %0, i64 8
  %5 = load ptr, ptr %4, align 8, !tbaa !26
  store ptr %5, ptr %3, align 8, !tbaa !26
  %6 = getelementptr inbounds nuw i8, ptr %3, i64 8
  %7 = getelementptr inbounds nuw i8, ptr %0, i64 16
  %8 = load ptr, ptr %7, align 8, !tbaa !28
  store ptr %8, ptr %6, align 8, !tbaa !28
  call void @_ZN5boost9unit_test9test_unit9add_labelENS0_13basic_cstringIKcEE(ptr noundef nonnull align 8 dereferenceable(280) %1, ptr noundef nonnull %3)
  ret void
}